; Function Attrs: mustprogress nofree norecurse nosync nounwind memory(argmem: readwrite) uwtable
define void @_ZNK5boost4urls6detail8url_impl7pct_getEii(ptr dead_on_unwind noalias nocapture writable writeonly sret(%"class.boost::urls::pct_string_view") align 8 %0, ptr nocapture noundef nonnull readonly align 8 dereferenceable(171) %1, i32 noundef %2, i32 noundef %3) local_unnamed_addr #3 align 2 {
  %5 = icmp eq i32 %2, -1
  br i1 %5, label %_ZNK5boost4urls6detail8url_impl6offsetEi.exit, label %6

6:                                                ; preds = %4
  %7 = getelementptr inbounds nuw i8, ptr %1, i64 8
  %8 = sext i32 %2 to i64
  %9 = getelementptr inbounds [8 x i64], ptr %7, i64 0, i64 %8
  %10 = load i64, ptr %9, align 8, !tbaa !13
  br label %_ZNK5boost4urls6detail8url_impl6offsetEi.exit

_ZNK5boost4urls6detail8url_impl6offsetEi.exit:    ; preds = %4, %6
  %11 = phi i64 [ %10, %6 ], [ 0, %4 ]
  %12 = icmp slt i32 %2, %3
  br i1 %12, label %.lr.ph, label %._crit_edge

.lr.ph:                                           ; preds = %_ZNK5boost4urls6detail8url_impl6offsetEi.exit
  %13 = getelementptr inbounds nuw i8, ptr %1, i64 72
  %14 = sext i32 %2 to i64
  %wide.trip.count = sext i32 %3 to i64
  br label %27

._crit_edge:                                      ; preds = %27, %_ZNK5boost4urls6detail8url_impl6offsetEi.exit
  %.010.lcssa = phi i64 [ 0, %_ZNK5boost4urls6detail8url_impl6offsetEi.exit ], [ %30, %27 ]
  %15 = load ptr, ptr %1, align 8, !tbaa !31
  %16 = icmp eq i32 %3, -1
  br i1 %16, label %_ZNK5boost4urls6detail8url_impl6offsetEi.exit12, label %17

17:                                               ; preds = %._crit_edge
  %18 = getelementptr inbounds nuw i8, ptr %1, i64 8
  %19 = sext i32 %3 to i64
  %20 = getelementptr inbounds [8 x i64], ptr %18, i64 0, i64 %19
  %21 = load i64, ptr %20, align 8, !tbaa !13
  br label %_ZNK5boost4urls6detail8url_impl6offsetEi.exit12

_ZNK5boost4urls6detail8url_impl6offsetEi.exit12:  ; preds = %._crit_edge, %17
  %22 = phi i64 [ %21, %17 ], [ 0, %._crit_edge ]
  %23 = getelementptr inbounds nuw i8, ptr %15, i64 %11
  %24 = sub i64 %22, %11
  store ptr %23, ptr %0, align 8, !tbaa !32, !alias.scope !36
  %25 = getelementptr inbounds nuw i8, ptr %0, i64 8
  store i64 %24, ptr %25, align 8, !tbaa !16, !alias.scope !36
  %26 = getelementptr inbounds nuw i8, ptr %0, i64 16
  store i64 %.010.lcssa, ptr %26, align 8, !tbaa !18, !alias.scope !36
  ret void

27:                                               ; preds = %.lr.ph, %27
  %indvars.iv = phi i64 [ %14, %.lr.ph ], [ %indvars.iv.next, %27 ]
  %.01013 = phi i64 [ 0, %.lr.ph ], [ %30, %27 ]
  %indvars.iv.next = add nsw i64 %indvars.iv, 1
  %28 = getelementptr inbounds [7 x i64], ptr %13, i64 0, i64 %indvars.iv
  %29 = load i64, ptr %28, align 8, !tbaa !13
  %30 = add i64 %29, %.01013
  %exitcond.not = icmp eq i64 %indvars.iv.next, %wide.trip.count
  br i1 %exitcond.not, label %._crit_edge, label %27, !llvm.loop !39
}